target datalayout = "e-m:e-p270:32:32-p271:32:32-p272:64:64-i64:64-i128:128-f80:128-n8:16:32:64-S128"
target triple = "x86_64-pc-linux-gnu"

%struct.stbtt_fontinfo = type { ptr, ptr, i32, i32, i32, i32, i32, i32, i32, i32, i32, i32 }

@.str.9 = private unnamed_addr constant [5 x i8] c"name\00", align 1

; Function Attrs: mustprogress nounwind uwtable
define internal noundef i32 @_ZL7ttULONGPKh(ptr noundef %0) #1 {
  %2 = alloca ptr, align 8
  store ptr %0, ptr %2, align 8
  %3 = load ptr, ptr %2, align 8
  %4 = getelementptr inbounds i8, ptr %3, i64 0
  %5 = load i8, ptr %4, align 1
  %6 = zext i8 %5 to i32
  %7 = shl i32 %6, 24
  %8 = load ptr, ptr %2, align 8
  %9 = getelementptr inbounds i8, ptr %8, i64 1
  %10 = load i8, ptr %9, align 1
  %11 = zext i8 %10 to i32
  %12 = shl i32 %11, 16
  %13 = add nsw i32 %7, %12
  %14 = load ptr, ptr %2, align 8
  %15 = getelementptr inbounds i8, ptr %14, i64 2
  %16 = load i8, ptr %15, align 1
  %17 = zext i8 %16 to i32
  %18 = shl i32 %17, 8
  %19 = add nsw i32 %13, %18
  %20 = load ptr, ptr %2, align 8
  %21 = getelementptr inbounds i8, ptr %20, i64 3
  %22 = load i8, ptr %21, align 1
  %23 = zext i8 %22 to i32
  %24 = add nsw i32 %19, %23
  ret i32 %24
}

; Function Attrs: mustprogress nounwind uwtable
define internal noundef zeroext i16 @_ZL8ttUSHORTPKh(ptr noundef %0) #1 {
  %2 = alloca ptr, align 8
  store ptr %0, ptr %2, align 8
  %3 = load ptr, ptr %2, align 8
  %4 = getelementptr inbounds i8, ptr %3, i64 0
  %5 = load i8, ptr %4, align 1
  %6 = zext i8 %5 to i32
  %7 = mul nsw i32 %6, 256
  %8 = load ptr, ptr %2, align 8
  %9 = getelementptr inbounds i8, ptr %8, i64 1
  %10 = load i8, ptr %9, align 1
  %11 = zext i8 %10 to i32
  %12 = add nsw i32 %7, %11
  %13 = trunc i32 %12 to i16
  ret i16 %13
}

; Function Attrs: mustprogress uwtable
define internal noundef i32 @_ZL17stbtt__find_tablePhjPKc(ptr noundef %0, i32 noundef %1, ptr noundef %2) #0 {
  %4 = alloca i32, align 4
  %5 = alloca ptr, align 8
  %6 = alloca i32, align 4
  %7 = alloca ptr, align 8
  %8 = alloca i32, align 4
  %9 = alloca i32, align 4
  %10 = alloca i32, align 4
  %11 = alloca i32, align 4
  store ptr %0, ptr %5, align 8
  store i32 %1, ptr %6, align 4
  store ptr %2, ptr %7, align 8
  %12 = load ptr, ptr %5, align 8
  %13 = load i32, ptr %6, align 4
  %14 = zext i32 %13 to i64
  %15 = getelementptr inbounds i8, ptr %12, i64 %14
  %16 = getelementptr inbounds i8, ptr %15, i64 4
  %17 = call noundef zeroext i16 @_ZL8ttUSHORTPKh(ptr noundef %16)
  %18 = zext i16 %17 to i32
  store i32 %18, ptr %8, align 4
  %19 = load i32, ptr %6, align 4
  %20 = add i32 %19, 12
  store i32 %20, ptr %9, align 4
  store i32 0, ptr %10, align 4
  br label %21

21:                                               ; preds = %93, %3
  %22 = load i32, ptr %10, align 4
  %23 = load i32, ptr %8, align 4
  %24 = icmp slt i32 %22, %23
  br i1 %24, label %25, label %96

25:                                               ; preds = %21
  %26 = load i32, ptr %9, align 4
  %27 = load i32, ptr %10, align 4
  %28 = mul nsw i32 16, %27
  %29 = add i32 %26, %28
  store i32 %29, ptr %11, align 4
  %30 = load ptr, ptr %5, align 8
  %31 = load i32, ptr %11, align 4
  %32 = zext i32 %31 to i64
  %33 = getelementptr inbounds i8, ptr %30, i64 %32
  %34 = getelementptr inbounds i8, ptr %33, i64 0
  %35 = getelementptr inbounds i8, ptr %34, i64 0
  %36 = load i8, ptr %35, align 1
  %37 = zext i8 %36 to i32
  %38 = load ptr, ptr %7, align 8
  %39 = getelementptr inbounds i8, ptr %38, i64 0
  %40 = load i8, ptr %39, align 1
  %41 = sext i8 %40 to i32
  %42 = icmp eq i32 %37, %41
  br i1 %42, label %43, label %92

43:                                               ; preds = %25
  %44 = load ptr, ptr %5, align 8
  %45 = load i32, ptr %11, align 4
  %46 = zext i32 %45 to i64
  %47 = getelementptr inbounds i8, ptr %44, i64 %46
  %48 = getelementptr inbounds i8, ptr %47, i64 0
  %49 = getelementptr inbounds i8, ptr %48, i64 1
  %50 = load i8, ptr %49, align 1
  %51 = zext i8 %50 to i32
  %52 = load ptr, ptr %7, align 8
  %53 = getelementptr inbounds i8, ptr %52, i64 1
  %54 = load i8, ptr %53, align 1
  %55 = sext i8 %54 to i32
  %56 = icmp eq i32 %51, %55
  br i1 %56, label %57, label %92

57:                                               ; preds = %43
  %58 = load ptr, ptr %5, align 8
  %59 = load i32, ptr %11, align 4
  %60 = zext i32 %59 to i64
  %61 = getelementptr inbounds i8, ptr %58, i64 %60
  %62 = getelementptr inbounds i8, ptr %61, i64 0
  %63 = getelementptr inbounds i8, ptr %62, i64 2
  %64 = load i8, ptr %63, align 1
  %65 = zext i8 %64 to i32
  %66 = load ptr, ptr %7, align 8
  %67 = getelementptr inbounds i8, ptr %66, i64 2
  %68 = load i8, ptr %67, align 1
  %69 = sext i8 %68 to i32
  %70 = icmp eq i32 %65, %69
  br i1 %70, label %71, label %92

71:                                               ; preds = %57
  %72 = load ptr, ptr %5, align 8
  %73 = load i32, ptr %11, align 4
  %74 = zext i32 %73 to i64
  %75 = getelementptr inbounds i8, ptr %72, i64 %74
  %76 = getelementptr inbounds i8, ptr %75, i64 0
  %77 = getelementptr inbounds i8, ptr %76, i64 3
  %78 = load i8, ptr %77, align 1
  %79 = zext i8 %78 to i32
  %80 = load ptr, ptr %7, align 8
  %81 = getelementptr inbounds i8, ptr %80, i64 3
  %82 = load i8, ptr %81, align 1
  %83 = sext i8 %82 to i32
  %84 = icmp eq i32 %79, %83
  br i1 %84, label %85, label %92

85:                                               ; preds = %71
  %86 = load ptr, ptr %5, align 8
  %87 = load i32, ptr %11, align 4
  %88 = zext i32 %87 to i64
  %89 = getelementptr inbounds i8, ptr %86, i64 %88
  %90 = getelementptr inbounds i8, ptr %89, i64 8
  %91 = call noundef i32 @_ZL7ttULONGPKh(ptr noundef %90)
  store i32 %91, ptr %4, align 4
  br label %97

92:                                               ; preds = %71, %57, %43, %25
  br label %93

93:                                               ; preds = %92
  %94 = load i32, ptr %10, align 4
  %95 = add nsw i32 %94, 1
  store i32 %95, ptr %10, align 4
  br label %21, !llvm.loop !7

96:                                               ; preds = %21
  store i32 0, ptr %4, align 4
  br label %97

97:                                               ; preds = %96, %85
  %98 = load i32, ptr %4, align 4
  ret i32 %98
}

; Function Attrs: mustprogress uwtable
define dso_local ptr @stbtt_GetFontNameString(ptr noundef %0, ptr noundef %1, i32 noundef %2, i32 noundef %3, i32 noundef %4, i32 noundef %5) #0 {
  %7 = alloca ptr, align 8
  %8 = alloca ptr, align 8
  %9 = alloca ptr, align 8
  %10 = alloca i32, align 4
  %11 = alloca i32, align 4
  %12 = alloca i32, align 4
  %13 = alloca i32, align 4
  %14 = alloca i32, align 4
  %15 = alloca i32, align 4
  %16 = alloca i32, align 4
  %17 = alloca ptr, align 8
  %18 = alloca i32, align 4
  %19 = alloca i32, align 4
  %20 = alloca i32, align 4
  store ptr %0, ptr %8, align 8
  store ptr %1, ptr %9, align 8
  store i32 %2, ptr %10, align 4
  store i32 %3, ptr %11, align 4
  store i32 %4, ptr %12, align 4
  store i32 %5, ptr %13, align 4
  %21 = load ptr, ptr %8, align 8
  %22 = getelementptr inbounds %struct.stbtt_fontinfo, ptr %21, i32 0, i32 1
  %23 = load ptr, ptr %22, align 8
  store ptr %23, ptr %17, align 8
  %24 = load ptr, ptr %8, align 8
  %25 = getelementptr inbounds %struct.stbtt_fontinfo, ptr %24, i32 0, i32 2
  %26 = load i32, ptr %25, align 8
  store i32 %26, ptr %18, align 4
  %27 = load ptr, ptr %17, align 8
  %28 = load i32, ptr %18, align 4
  %29 = call noundef i32 @_ZL17stbtt__find_tablePhjPKc(ptr noundef %27, i32 noundef %28, ptr noundef @.str.9)
  store i32 %29, ptr %19, align 4
  %30 = load i32, ptr %19, align 4
  %31 = icmp ne i32 %30, 0
  br i1 %31, label %33, label %32

32:                                               ; preds = %6
  store ptr null, ptr %7, align 8
  br label %126

33:                                               ; preds = %6
  %34 = load ptr, ptr %17, align 8
  %35 = load i32, ptr %19, align 4
  %36 = zext i32 %35 to i64
  %37 = getelementptr inbounds i8, ptr %34, i64 %36
  %38 = getelementptr inbounds i8, ptr %37, i64 2
  %39 = call noundef zeroext i16 @_ZL8ttUSHORTPKh(ptr noundef %38)
  %40 = zext i16 %39 to i32
  store i32 %40, ptr %15, align 4
  %41 = load i32, ptr %19, align 4
  %42 = load ptr, ptr %17, align 8
  %43 = load i32, ptr %19, align 4
  %44 = zext i32 %43 to i64
  %45 = getelementptr inbounds i8, ptr %42, i64 %44
  %46 = getelementptr inbounds i8, ptr %45, i64 4
  %47 = call noundef zeroext i16 @_ZL8ttUSHORTPKh(ptr noundef %46)
  %48 = zext i16 %47 to i32
  %49 = add i32 %41, %48
  store i32 %49, ptr %16, align 4
  store i32 0, ptr %14, align 4
  br label %50

50:                                               ; preds = %122, %33
  %51 = load i32, ptr %14, align 4
  %52 = load i32, ptr %15, align 4
  %53 = icmp slt i32 %51, %52
  br i1 %53, label %54, label %125

54:                                               ; preds = %50
  %55 = load i32, ptr %19, align 4
  %56 = add i32 %55, 6
  %57 = load i32, ptr %14, align 4
  %58 = mul nsw i32 12, %57
  %59 = add i32 %56, %58
  store i32 %59, ptr %20, align 4
  %60 = load i32, ptr %10, align 4
  %61 = load ptr, ptr %17, align 8
  %62 = load i32, ptr %20, align 4
  %63 = zext i32 %62 to i64
  %64 = getelementptr inbounds i8, ptr %61, i64 %63
  %65 = getelementptr inbounds i8, ptr %64, i64 0
  %66 = call noundef zeroext i16 @_ZL8ttUSHORTPKh(ptr noundef %65)
  %67 = zext i16 %66 to i32
  %68 = icmp eq i32 %60, %67
  br i1 %68, label %69, label %121

69:                                               ; preds = %54
  %70 = load i32, ptr %11, align 4
  %71 = load ptr, ptr %17, align 8
  %72 = load i32, ptr %20, align 4
  %73 = zext i32 %72 to i64
  %74 = getelementptr inbounds i8, ptr %71, i64 %73
  %75 = getelementptr inbounds i8, ptr %74, i64 2
  %76 = call noundef zeroext i16 @_ZL8ttUSHORTPKh(ptr noundef %75)
  %77 = zext i16 %76 to i32
  %78 = icmp eq i32 %70, %77
  br i1 %78, label %79, label %121

79:                                               ; preds = %69
  %80 = load i32, ptr %12, align 4
  %81 = load ptr, ptr %17, align 8
  %82 = load i32, ptr %20, align 4
  %83 = zext i32 %82 to i64
  %84 = getelementptr inbounds i8, ptr %81, i64 %83
  %85 = getelementptr inbounds i8, ptr %84, i64 4
  %86 = call noundef zeroext i16 @_ZL8ttUSHORTPKh(ptr noundef %85)
  %87 = zext i16 %86 to i32
  %88 = icmp eq i32 %80, %87
  br i1 %88, label %89, label %121

89:                                               ; preds = %79
  %90 = load i32, ptr %13, align 4
  %91 = load ptr, ptr %17, align 8
  %92 = load i32, ptr %20, align 4
  %93 = zext i32 %92 to i64
  %94 = getelementptr inbounds i8, ptr %91, i64 %93
  %95 = getelementptr inbounds i8, ptr %94, i64 6
  %96 = call noundef zeroext i16 @_ZL8ttUSHORTPKh(ptr noundef %95)
  %97 = zext i16 %96 to i32
  %98 = icmp eq i32 %90, %97
  br i1 %98, label %99, label %121

99:                                               ; preds = %89
  %100 = load ptr, ptr %17, align 8
  %101 = load i32, ptr %20, align 4
  %102 = zext i32 %101 to i64
  %103 = getelementptr inbounds i8, ptr %100, i64 %102
  %104 = getelementptr inbounds i8, ptr %103, i64 8
  %105 = call noundef zeroext i16 @_ZL8ttUSHORTPKh(ptr noundef %104)
  %106 = zext i16 %105 to i32
  %107 = load ptr, ptr %9, align 8
  store i32 %106, ptr %107, align 4
  %108 = load ptr, ptr %17, align 8
  %109 = load i32, ptr %16, align 4
  %110 = sext i32 %109 to i64
  %111 = getelementptr inbounds i8, ptr %108, i64 %110
  %112 = load ptr, ptr %17, align 8
  %113 = load i32, ptr %20, align 4
  %114 = zext i32 %113 to i64
  %115 = getelementptr inbounds i8, ptr %112, i64 %114
  %116 = getelementptr inbounds i8, ptr %115, i64 10
  %117 = call noundef zeroext i16 @_ZL8ttUSHORTPKh(ptr noundef %116)
  %118 = zext i16 %117 to i32
  %119 = sext i32 %118 to i64
  %120 = getelementptr inbounds i8, ptr %111, i64 %119
  store ptr %120, ptr %7, align 8
  br label %126

121:                                              ; preds = %89, %79, %69, %54
  br label %122

122:                                              ; preds = %121
  %123 = load i32, ptr %14, align 4
  %124 = add nsw i32 %123, 1
  store i32 %124, ptr %14, align 4
  br label %50, !llvm.loop !48

125:                                              ; preds = %50
  store ptr null, ptr %7, align 8
  br label %126

126:                                              ; preds = %125, %99, %32
  %127 = load ptr, ptr %7, align 8
  ret ptr %127
}