; Function Attrs: mustprogress nofree norecurse nosync nounwind memory(read, argmem: readwrite, inaccessiblemem: none) uwtable
define dso_local ptr @stbtt_GetFontNameString(ptr noundef readonly captures(none) %0, ptr noundef writeonly captures(none) %1, i32 noundef %2, i32 noundef %3, i32 noundef %4, i32 noundef %5) local_unnamed_addr #14 {
  %7 = getelementptr inbounds nuw i8, ptr %0, i64 8
  %8 = load ptr, ptr %7, align 8
  %9 = getelementptr inbounds nuw i8, ptr %0, i64 16
  %10 = load i32, ptr %9, align 8
  %11 = zext i32 %10 to i64
  %12 = getelementptr inbounds nuw i8, ptr %8, i64 %11
  %13 = getelementptr inbounds nuw i8, ptr %12, i64 4
  %.val.i = load i8, ptr %13, align 1
  %14 = getelementptr i8, ptr %12, i64 5
  %.val23.i = load i8, ptr %14, align 1
  %15 = zext i8 %.val.i to i32
  %16 = shl nuw nsw i32 %15, 8
  %17 = zext i8 %.val23.i to i32
  %18 = or disjoint i32 %16, %17
  %19 = add i32 %10, 12
  %.not.i = icmp eq i32 %18, 0
  br i1 %.not.i, label %_ZL17stbtt__find_tablePhjPKc.exit.thread, label %.lr.ph.i

.lr.ph.i:                                         ; preds = %6
  %wide.trip.count.i = zext nneg i32 %18 to i64
  br label %20

20:                                               ; preds = %39, %.lr.ph.i
  %indvars.iv.i = phi i64 [ 0, %.lr.ph.i ], [ %indvars.iv.next.i, %39 ]
  %indvars.iv.tr.i = trunc i64 %indvars.iv.i to i32
  %21 = shl i32 %indvars.iv.tr.i, 4
  %22 = add i32 %19, %21
  %23 = zext i32 %22 to i64
  %24 = getelementptr inbounds nuw i8, ptr %8, i64 %23
  %25 = load i8, ptr %24, align 1
  %26 = icmp eq i8 %25, 110
  br i1 %26, label %27, label %39

27:                                               ; preds = %20
  %28 = getelementptr inbounds nuw i8, ptr %24, i64 1
  %29 = load i8, ptr %28, align 1
  %30 = icmp eq i8 %29, 97
  br i1 %30, label %31, label %39

31:                                               ; preds = %27
  %32 = getelementptr inbounds nuw i8, ptr %24, i64 2
  %33 = load i8, ptr %32, align 1
  %34 = icmp eq i8 %33, 109
  br i1 %34, label %35, label %39

35:                                               ; preds = %31
  %36 = getelementptr inbounds nuw i8, ptr %24, i64 3
  %37 = load i8, ptr %36, align 1
  %38 = icmp eq i8 %37, 101
  br i1 %38, label %_ZL17stbtt__find_tablePhjPKc.exit, label %39

39:                                               ; preds = %35, %31, %27, %20
  %indvars.iv.next.i = add nuw nsw i64 %indvars.iv.i, 1
  %exitcond.not.i = icmp eq i64 %indvars.iv.next.i, %wide.trip.count.i
  br i1 %exitcond.not.i, label %_ZL17stbtt__find_tablePhjPKc.exit.thread, label %20, !llvm.loop !5

_ZL17stbtt__find_tablePhjPKc.exit:                ; preds = %35
  %40 = getelementptr inbounds nuw i8, ptr %24, i64 8
  %41 = load i8, ptr %40, align 1
  %42 = zext i8 %41 to i32
  %43 = shl nuw i32 %42, 24
  %44 = getelementptr inbounds nuw i8, ptr %24, i64 9
  %45 = load i8, ptr %44, align 1
  %46 = zext i8 %45 to i32
  %47 = shl nuw nsw i32 %46, 16
  %48 = or disjoint i32 %47, %43
  %49 = getelementptr inbounds nuw i8, ptr %24, i64 10
  %50 = load i8, ptr %49, align 1
  %51 = zext i8 %50 to i32
  %52 = shl nuw nsw i32 %51, 8
  %53 = or disjoint i32 %48, %52
  %54 = getelementptr inbounds nuw i8, ptr %24, i64 11
  %55 = load i8, ptr %54, align 1
  %56 = zext i8 %55 to i32
  %57 = or disjoint i32 %53, %56
  %.not = icmp eq i32 %57, 0
  br i1 %.not, label %_ZL17stbtt__find_tablePhjPKc.exit.thread, label %58

58:                                               ; preds = %_ZL17stbtt__find_tablePhjPKc.exit
  %59 = zext i32 %57 to i64
  %60 = getelementptr inbounds nuw i8, ptr %8, i64 %59
  %61 = getelementptr inbounds nuw i8, ptr %60, i64 2
  %.val49 = load i8, ptr %61, align 1
  %62 = getelementptr i8, ptr %60, i64 3
  %.val50 = load i8, ptr %62, align 1
  %63 = zext i8 %.val49 to i32
  %64 = shl nuw nsw i32 %63, 8
  %65 = zext i8 %.val50 to i32
  %66 = or disjoint i32 %64, %65
  %67 = getelementptr inbounds nuw i8, ptr %60, i64 4
  %.val47 = load i8, ptr %67, align 1
  %68 = getelementptr i8, ptr %60, i64 5
  %.val48 = load i8, ptr %68, align 1
  %69 = zext i8 %.val47 to i32
  %70 = shl nuw nsw i32 %69, 8
  %71 = zext i8 %.val48 to i32
  %72 = or disjoint i32 %70, %71
  %73 = add i32 %72, %57
  %.not57 = icmp eq i32 %66, 0
  br i1 %.not57, label %_ZL17stbtt__find_tablePhjPKc.exit.thread, label %.lr.ph

.lr.ph:                                           ; preds = %58
  %74 = add i32 %57, 6
  %wide.trip.count = zext nneg i32 %66 to i64
  br label %75

75:                                               ; preds = %.lr.ph, %127
  %indvars.iv = phi i64 [ 0, %.lr.ph ], [ %indvars.iv.next, %127 ]
  %76 = trunc i64 %indvars.iv to i32
  %77 = mul i32 %76, 12
  %78 = add i32 %74, %77
  %79 = zext i32 %78 to i64
  %80 = getelementptr inbounds nuw i8, ptr %8, i64 %79
  %.val45 = load i8, ptr %80, align 1
  %81 = getelementptr i8, ptr %80, i64 1
  %.val46 = load i8, ptr %81, align 1
  %82 = zext i8 %.val45 to i32
  %83 = shl nuw nsw i32 %82, 8
  %84 = zext i8 %.val46 to i32
  %85 = or disjoint i32 %83, %84
  %86 = icmp eq i32 %2, %85
  br i1 %86, label %87, label %127

87:                                               ; preds = %75
  %88 = getelementptr inbounds nuw i8, ptr %80, i64 2
  %.val43 = load i8, ptr %88, align 1
  %89 = getelementptr i8, ptr %80, i64 3
  %.val44 = load i8, ptr %89, align 1
  %90 = zext i8 %.val43 to i32
  %91 = shl nuw nsw i32 %90, 8
  %92 = zext i8 %.val44 to i32
  %93 = or disjoint i32 %91, %92
  %94 = icmp eq i32 %3, %93
  br i1 %94, label %95, label %127

95:                                               ; preds = %87
  %96 = getelementptr inbounds nuw i8, ptr %80, i64 4
  %.val41 = load i8, ptr %96, align 1
  %97 = getelementptr i8, ptr %80, i64 5
  %.val42 = load i8, ptr %97, align 1
  %98 = zext i8 %.val41 to i32
  %99 = shl nuw nsw i32 %98, 8
  %100 = zext i8 %.val42 to i32
  %101 = or disjoint i32 %99, %100
  %102 = icmp eq i32 %4, %101
  br i1 %102, label %103, label %127

103:                                              ; preds = %95
  %104 = getelementptr inbounds nuw i8, ptr %80, i64 6
  %.val39 = load i8, ptr %104, align 1
  %105 = getelementptr i8, ptr %80, i64 7
  %.val40 = load i8, ptr %105, align 1
  %106 = zext i8 %.val39 to i32
  %107 = shl nuw nsw i32 %106, 8
  %108 = zext i8 %.val40 to i32
  %109 = or disjoint i32 %107, %108
  %110 = icmp eq i32 %5, %109
  br i1 %110, label %111, label %127

111:                                              ; preds = %103
  %112 = getelementptr inbounds nuw i8, ptr %80, i64 8
  %.val37 = load i8, ptr %112, align 1
  %113 = getelementptr i8, ptr %80, i64 9
  %.val38 = load i8, ptr %113, align 1
  %114 = zext i8 %.val37 to i32
  %115 = shl nuw nsw i32 %114, 8
  %116 = zext i8 %.val38 to i32
  %117 = or disjoint i32 %115, %116
  store i32 %117, ptr %1, align 4
  %118 = sext i32 %73 to i64
  %119 = getelementptr inbounds i8, ptr %8, i64 %118
  %120 = getelementptr inbounds nuw i8, ptr %80, i64 10
  %.val = load i8, ptr %120, align 1
  %121 = getelementptr i8, ptr %80, i64 11
  %.val36 = load i8, ptr %121, align 1
  %122 = zext i8 %.val to i64
  %123 = shl nuw nsw i64 %122, 8
  %124 = zext i8 %.val36 to i64
  %125 = or disjoint i64 %123, %124
  %126 = getelementptr inbounds nuw i8, ptr %119, i64 %125
  br label %_ZL17stbtt__find_tablePhjPKc.exit.thread

127:                                              ; preds = %75, %87, %95, %103
  %indvars.iv.next = add nuw nsw i64 %indvars.iv, 1
  %exitcond.not = icmp eq i64 %indvars.iv.next, %wide.trip.count
  br i1 %exitcond.not, label %_ZL17stbtt__find_tablePhjPKc.exit.thread, label %75, !llvm.loop !59

_ZL17stbtt__find_tablePhjPKc.exit.thread:         ; preds = %39, %127, %58, %6, %_ZL17stbtt__find_tablePhjPKc.exit, %111
  %.0 = phi ptr [ %126, %111 ], [ null, %_ZL17stbtt__find_tablePhjPKc.exit ], [ null, %6 ], [ null, %58 ], [ null, %127 ], [ null, %39 ]
  ret ptr %.0
}